; Function Attrs: nounwind uwtable
define void @luby2_test() local_unnamed_addr #2 {
  br label %1

1:                                                ; preds = %0, %luby2.exit
  %.05 = phi i32 [ 0, %0 ], [ %11, %luby2.exit ]
  %.not16.i = icmp eq i32 %.05, 0
  br i1 %.not16.i, label %.preheader.i, label %.lr.ph.i

.preheader.i:                                     ; preds = %.lr.ph.i, %1
  %.011.lcssa.i = phi i32 [ 0, %1 ], [ %3, %.lr.ph.i ]
  %.0.lcssa.i = phi i32 [ 0, %1 ], [ %2, %.lr.ph.i ]
  %.not1520.i = icmp eq i32 %.011.lcssa.i, %.05
  br i1 %.not1520.i, label %luby2.exit, label %.lr.ph23.i

.lr.ph.i:                                         ; preds = %1, %.lr.ph.i
  %.018.i = phi i32 [ %2, %.lr.ph.i ], [ 0, %1 ]
  %.01117.i = phi i32 [ %4, %.lr.ph.i ], [ 1, %1 ]
  %2 = add nuw nsw i32 %.018.i, 1
  %3 = shl nsw i32 %.01117.i, 1
  %4 = or disjoint i32 %3, 1
  %.not.not.i = icmp slt i32 %3, %.05
  br i1 %.not.not.i, label %.lr.ph.i, label %.preheader.i, !llvm.loop !28

.lr.ph23.i:                                       ; preds = %.preheader.i, %.lr.ph23.i
  %5 = phi i32 [ %9, %.lr.ph23.i ], [ %.011.lcssa.i, %.preheader.i ]
  %.122.i = phi i32 [ %7, %.lr.ph23.i ], [ %.0.lcssa.i, %.preheader.i ]
  %.01321.i = phi i32 [ %8, %.lr.ph23.i ], [ %.05, %.preheader.i ]
  %6 = ashr i32 %5, 1
  %7 = add nsw i32 %.122.i, -1
  %8 = srem i32 %.01321.i, %6
  %9 = add nsw i32 %6, -1
  %.not15.i = icmp eq i32 %9, %8
  br i1 %.not15.i, label %luby2.exit, label %.lr.ph23.i, !llvm.loop !29

luby2.exit:                                       ; preds = %.lr.ph23.i, %.preheader.i
  %.1.lcssa.i = phi i32 [ %.0.lcssa.i, %.preheader.i ], [ %7, %.lr.ph23.i ]
  %ldexp = tail call double @ldexp(double 1.000000e+00, i32 %.1.lcssa.i) #29
  %10 = fptosi double %ldexp to i32
  tail call void (i32, ptr, ...) @Abc_Print(i32 poison, ptr noundef nonnull @.str, i32 noundef %10)
  %11 = add nuw nsw i32 %.05, 1
  %exitcond.not = icmp eq i32 %11, 20
  br i1 %exitcond.not, label %12, label %1, !llvm.loop !30

12:                                               ; preds = %luby2.exit
  tail call void (i32, ptr, ...) @Abc_Print(i32 poison, ptr noundef nonnull @.str.1)
  ret void
}